ARM GAS  C:\Users\Darwin\AppData\Local\Temp\ccK2BLZS.s 			page 1


   1              		.syntax unified
   2              		.cpu cortex-m3
   3              		.fpu softvfp
   4              		.eabi_attribute 20, 1
   5              		.eabi_attribute 21, 1
   6              		.eabi_attribute 23, 3
   7              		.eabi_attribute 24, 1
   8              		.eabi_attribute 25, 1
   9              		.eabi_attribute 26, 1
  10              		.eabi_attribute 30, 1
  11              		.eabi_attribute 34, 1
  12              		.eabi_attribute 18, 4
  13              		.thumb
  14              		.syntax unified
  15              		.file	"main.c"
  16              		.text
  17              	.Ltext0:
  18              		.cfi_sections	.debug_frame
  19              		.section	.text.AumentarInt,"ax",%progbits
  20              		.align	2
  21              		.global	AumentarInt
  22              		.thumb
  23              		.thumb_func
  24              		.type	AumentarInt, %function
  25              	AumentarInt:
  26              	.LFB63:
  27              		.file 1 "main.c"
   1:main.c        **** /* ========================================
   2:main.c        ****  *
   3:main.c        ****  * Copyright YOUR COMPANY, THE YEAR
   4:main.c        ****  * All Rights Reserved
   5:main.c        ****  * UNPUBLISHED, LICENSED SOFTWARE.
   6:main.c        ****  *
   7:main.c        ****  * CONFIDENTIAL AND PROPRIETARY INFORMATION
   8:main.c        ****  * WHICH IS THE PROPERTY OF your company.
   9:main.c        ****  *
  10:main.c        ****  * ========================================
  11:main.c        **** */
  12:main.c        **** #include "project.h"
  13:main.c        **** 
  14:main.c        **** /* Declaración de variables */
  15:main.c        **** float Ts=0.01; /* Periodo de muestreo de 10ms */
  16:main.c        **** int16 control_manual=120;
  17:main.c        **** int16 control_auto=100;
  18:main.c        **** volatile float control_anterior=0;
  19:main.c        **** int angulo=0;
  20:main.c        **** int ref_angulo=81;
  21:main.c        **** /* seleccion de control */
  22:main.c        **** int16 control=1;    
  23:main.c        **** /* Variables de control */
  24:main.c        **** float radio = 0.1;
  25:main.c        **** float PkP=0.3;
  26:main.c        **** float PkI=0.001;/**************IMPORTANTE REVISAR EN LABORATORIO (talvez hay que aumentarlo, ya que
  27:main.c        **** float PkD=1000;
  28:main.c        **** volatile float error,error_anterior;
  29:main.c        **** volatile float Pkp,Pki,Pkd;
  30:main.c        **** volatile float Pki_anterior=0;
ARM GAS  C:\Users\Darwin\AppData\Local\Temp\ccK2BLZS.s 			page 2


  31:main.c        **** 
  32:main.c        **** 
  33:main.c        **** /* Métodos de interrupción */
  34:main.c        **** CY_ISR(AumentarInt)
  35:main.c        **** {
  28              		.loc 1 35 0
  29              		.cfi_startproc
  30              		@ args = 0, pretend = 0, frame = 0
  31              		@ frame_needed = 0, uses_anonymous_args = 0
  36:main.c        ****     if(control_manual<200)
  32              		.loc 1 36 0
  33 0000 1B4B     		ldr	r3, .L5
  34 0002 B3F90000 		ldrsh	r0, [r3]
  35 0006 C728     		cmp	r0, #199
  36 0008 30DC     		bgt	.L4
  35:main.c        ****     if(control_manual<200)
  37              		.loc 1 35 0
  38 000a 10B5     		push	{r4, lr}
  39              		.cfi_def_cfa_offset 8
  40              		.cfi_offset 4, -8
  41              		.cfi_offset 14, -4
  37:main.c        ****     {
  38:main.c        ****         control_manual=control_manual+1;
  42              		.loc 1 38 0
  43 000c 0130     		adds	r0, r0, #1
  44 000e 80B2     		uxth	r0, r0
  45 0010 1C46     		mov	r4, r3
  46 0012 1880     		strh	r0, [r3]	@ movhi
  39:main.c        ****         PWM_Motor_WriteCompare(control_manual);
  47              		.loc 1 39 0
  48 0014 FFF7FEFF 		bl	PWM_Motor_WriteCompare
  49              	.LVL0:
  40:main.c        ****         Reset_PWM_Write(1);
  50              		.loc 1 40 0
  51 0018 0120     		movs	r0, #1
  52 001a FFF7FEFF 		bl	Reset_PWM_Write
  53              	.LVL1:
  41:main.c        ****         Reset_PWM_Write(0);
  54              		.loc 1 41 0
  55 001e 0020     		movs	r0, #0
  56 0020 FFF7FEFF 		bl	Reset_PWM_Write
  57              	.LVL2:
  42:main.c        ****         
  43:main.c        ****         LED_Write(1);
  58              		.loc 1 43 0
  59 0024 0120     		movs	r0, #1
  60 0026 FFF7FEFF 		bl	LED_Write
  61              	.LVL3:
  44:main.c        ****         
  45:main.c        ****         LCD_ClearDisplay();
  62              		.loc 1 45 0
  63 002a 0120     		movs	r0, #1
  64 002c FFF7FEFF 		bl	LCD_WriteControl
  65              	.LVL4:
  46:main.c        ****         LCD_Position(0,0);
  66              		.loc 1 46 0
  67 0030 0021     		movs	r1, #0
ARM GAS  C:\Users\Darwin\AppData\Local\Temp\ccK2BLZS.s 			page 3


  68 0032 0846     		mov	r0, r1
  69 0034 FFF7FEFF 		bl	LCD_Position
  70              	.LVL5:
  47:main.c        ****         LCD_PrintString("control:");
  71              		.loc 1 47 0
  72 0038 0E48     		ldr	r0, .L5+4
  73 003a FFF7FEFF 		bl	LCD_PrintString
  74              	.LVL6:
  48:main.c        ****     
  49:main.c        ****         LCD_Position(0,10);
  75              		.loc 1 49 0
  76 003e 0A21     		movs	r1, #10
  77 0040 0020     		movs	r0, #0
  78 0042 FFF7FEFF 		bl	LCD_Position
  79              	.LVL7:
  50:main.c        ****         LCD_PrintNumber(control_manual);
  80              		.loc 1 50 0
  81 0046 2088     		ldrh	r0, [r4]
  82 0048 FFF7FEFF 		bl	LCD_PrintU32Number
  83              	.LVL8:
  51:main.c        ****         
  52:main.c        ****         LCD_Position(1,0);
  84              		.loc 1 52 0
  85 004c 0021     		movs	r1, #0
  86 004e 0120     		movs	r0, #1
  87 0050 FFF7FEFF 		bl	LCD_Position
  88              	.LVL9:
  53:main.c        ****         LCD_PrintString("angulo:");
  89              		.loc 1 53 0
  90 0054 0848     		ldr	r0, .L5+8
  91 0056 FFF7FEFF 		bl	LCD_PrintString
  92              	.LVL10:
  54:main.c        ****         LCD_Position(1,10);
  93              		.loc 1 54 0
  94 005a 0A21     		movs	r1, #10
  95 005c 0120     		movs	r0, #1
  96 005e FFF7FEFF 		bl	LCD_Position
  97              	.LVL11:
  55:main.c        ****         LCD_PrintNumber(angulo);
  98              		.loc 1 55 0
  99 0062 064B     		ldr	r3, .L5+12
 100 0064 1888     		ldrh	r0, [r3]
 101 0066 FFF7FEFF 		bl	LCD_PrintU32Number
 102              	.LVL12:
 103 006a 10BD     		pop	{r4, pc}
 104              	.L4:
 105              		.cfi_def_cfa_offset 0
 106              		.cfi_restore 4
 107              		.cfi_restore 14
 108 006c 7047     		bx	lr
 109              	.L6:
 110 006e 00BF     		.align	2
 111              	.L5:
 112 0070 00000000 		.word	.LANCHOR0
 113 0074 00000000 		.word	.LC0
 114 0078 0C000000 		.word	.LC1
 115 007c 00000000 		.word	.LANCHOR1
ARM GAS  C:\Users\Darwin\AppData\Local\Temp\ccK2BLZS.s 			page 4


 116              		.cfi_endproc
 117              	.LFE63:
 118              		.size	AumentarInt, .-AumentarInt
 119              		.section	.text.DisminuirInt,"ax",%progbits
 120              		.align	2
 121              		.global	DisminuirInt
 122              		.thumb
 123              		.thumb_func
 124              		.type	DisminuirInt, %function
 125              	DisminuirInt:
 126              	.LFB64:
  56:main.c        ****         
  57:main.c        ****     }
  58:main.c        **** }
  59:main.c        **** 
  60:main.c        **** CY_ISR(DisminuirInt)
  61:main.c        **** {
 127              		.loc 1 61 0
 128              		.cfi_startproc
 129              		@ args = 0, pretend = 0, frame = 0
 130              		@ frame_needed = 0, uses_anonymous_args = 0
  62:main.c        ****     if(control_manual>100)
 131              		.loc 1 62 0
 132 0000 1B4B     		ldr	r3, .L11
 133 0002 B3F90000 		ldrsh	r0, [r3]
 134 0006 6428     		cmp	r0, #100
 135 0008 30DD     		ble	.L10
  61:main.c        ****     if(control_manual>100)
 136              		.loc 1 61 0
 137 000a 10B5     		push	{r4, lr}
 138              		.cfi_def_cfa_offset 8
 139              		.cfi_offset 4, -8
 140              		.cfi_offset 14, -4
  63:main.c        ****     {
  64:main.c        ****         control_manual=control_manual-1;
 141              		.loc 1 64 0
 142 000c 0138     		subs	r0, r0, #1
 143 000e 80B2     		uxth	r0, r0
 144 0010 1C46     		mov	r4, r3
 145 0012 1880     		strh	r0, [r3]	@ movhi
  65:main.c        ****         PWM_Motor_WriteCompare(control_manual);
 146              		.loc 1 65 0
 147 0014 FFF7FEFF 		bl	PWM_Motor_WriteCompare
 148              	.LVL13:
  66:main.c        ****         Reset_PWM_Write(1);
 149              		.loc 1 66 0
 150 0018 0120     		movs	r0, #1
 151 001a FFF7FEFF 		bl	Reset_PWM_Write
 152              	.LVL14:
  67:main.c        ****         Reset_PWM_Write(0);
 153              		.loc 1 67 0
 154 001e 0020     		movs	r0, #0
 155 0020 FFF7FEFF 		bl	Reset_PWM_Write
 156              	.LVL15:
  68:main.c        ****         
  69:main.c        ****         LED_Write(0);
 157              		.loc 1 69 0
ARM GAS  C:\Users\Darwin\AppData\Local\Temp\ccK2BLZS.s 			page 5


 158 0024 0020     		movs	r0, #0
 159 0026 FFF7FEFF 		bl	LED_Write
 160              	.LVL16:
  70:main.c        ****         
  71:main.c        ****         LCD_ClearDisplay();
 161              		.loc 1 71 0
 162 002a 0120     		movs	r0, #1
 163 002c FFF7FEFF 		bl	LCD_WriteControl
 164              	.LVL17:
  72:main.c        ****         LCD_Position(0,0);
 165              		.loc 1 72 0
 166 0030 0021     		movs	r1, #0
 167 0032 0846     		mov	r0, r1
 168 0034 FFF7FEFF 		bl	LCD_Position
 169              	.LVL18:
  73:main.c        ****         LCD_PrintString("control:");
 170              		.loc 1 73 0
 171 0038 0E48     		ldr	r0, .L11+4
 172 003a FFF7FEFF 		bl	LCD_PrintString
 173              	.LVL19:
  74:main.c        ****     
  75:main.c        ****         LCD_Position(0,10);
 174              		.loc 1 75 0
 175 003e 0A21     		movs	r1, #10
 176 0040 0020     		movs	r0, #0
 177 0042 FFF7FEFF 		bl	LCD_Position
 178              	.LVL20:
  76:main.c        ****         LCD_PrintNumber(control_manual);
 179              		.loc 1 76 0
 180 0046 2088     		ldrh	r0, [r4]
 181 0048 FFF7FEFF 		bl	LCD_PrintU32Number
 182              	.LVL21:
  77:main.c        ****         
  78:main.c        ****         LCD_Position(1,0);
 183              		.loc 1 78 0
 184 004c 0021     		movs	r1, #0
 185 004e 0120     		movs	r0, #1
 186 0050 FFF7FEFF 		bl	LCD_Position
 187              	.LVL22:
  79:main.c        ****         LCD_PrintString("angulo:");
 188              		.loc 1 79 0
 189 0054 0848     		ldr	r0, .L11+8
 190 0056 FFF7FEFF 		bl	LCD_PrintString
 191              	.LVL23:
  80:main.c        ****         LCD_Position(1,10);
 192              		.loc 1 80 0
 193 005a 0A21     		movs	r1, #10
 194 005c 0120     		movs	r0, #1
 195 005e FFF7FEFF 		bl	LCD_Position
 196              	.LVL24:
  81:main.c        ****         LCD_PrintNumber(angulo);
 197              		.loc 1 81 0
 198 0062 064B     		ldr	r3, .L11+12
 199 0064 1888     		ldrh	r0, [r3]
 200 0066 FFF7FEFF 		bl	LCD_PrintU32Number
 201              	.LVL25:
 202 006a 10BD     		pop	{r4, pc}
ARM GAS  C:\Users\Darwin\AppData\Local\Temp\ccK2BLZS.s 			page 6


 203              	.L10:
 204              		.cfi_def_cfa_offset 0
 205              		.cfi_restore 4
 206              		.cfi_restore 14
 207 006c 7047     		bx	lr
 208              	.L12:
 209 006e 00BF     		.align	2
 210              	.L11:
 211 0070 00000000 		.word	.LANCHOR0
 212 0074 00000000 		.word	.LC0
 213 0078 0C000000 		.word	.LC1
 214 007c 00000000 		.word	.LANCHOR1
 215              		.cfi_endproc
 216              	.LFE64:
 217              		.size	DisminuirInt, .-DisminuirInt
 218              		.global	__aeabi_i2f
 219              		.global	__aeabi_fmul
 220              		.global	__aeabi_fadd
 221              		.global	__aeabi_fsub
 222              		.global	__aeabi_fdiv
 223              		.global	__aeabi_f2iz
 224              		.global	__aeabi_fcmplt
 225              		.global	__aeabi_fcmpgt
 226              		.section	.text.Muestreo,"ax",%progbits
 227              		.align	2
 228              		.global	Muestreo
 229              		.thumb
 230              		.thumb_func
 231              		.type	Muestreo, %function
 232              	Muestreo:
 233              	.LFB65:
  82:main.c        ****     }
  83:main.c        **** }
  84:main.c        **** 
  85:main.c        **** CY_ISR(Muestreo)
  86:main.c        **** {
 234              		.loc 1 86 0
 235              		.cfi_startproc
 236              		@ args = 0, pretend = 0, frame = 0
 237              		@ frame_needed = 0, uses_anonymous_args = 0
 238 0000 F8B5     		push	{r3, r4, r5, r6, r7, lr}
 239              		.cfi_def_cfa_offset 24
 240              		.cfi_offset 3, -24
 241              		.cfi_offset 4, -20
 242              		.cfi_offset 5, -16
 243              		.cfi_offset 6, -12
 244              		.cfi_offset 7, -8
 245              		.cfi_offset 14, -4
  87:main.c        ****     /*****falta agregar constantes para medir el ángulo en grados******/
  88:main.c        ****     angulo=QuadDec_GetCounter();
 246              		.loc 1 88 0
 247 0002 FFF7FEFF 		bl	QuadDec_GetCounter
 248              	.LVL26:
 249 0006 4E4B     		ldr	r3, .L25
 250 0008 1860     		str	r0, [r3]
  89:main.c        ****     
  90:main.c        ****     LCD_ClearDisplay();
ARM GAS  C:\Users\Darwin\AppData\Local\Temp\ccK2BLZS.s 			page 7


 251              		.loc 1 90 0
 252 000a 0120     		movs	r0, #1
 253 000c FFF7FEFF 		bl	LCD_WriteControl
 254              	.LVL27:
  91:main.c        ****     LCD_Position(0,0);
 255              		.loc 1 91 0
 256 0010 0021     		movs	r1, #0
 257 0012 0846     		mov	r0, r1
 258 0014 FFF7FEFF 		bl	LCD_Position
 259              	.LVL28:
  92:main.c        ****     LCD_PrintString("control:");
 260              		.loc 1 92 0
 261 0018 4A48     		ldr	r0, .L25+4
 262 001a FFF7FEFF 		bl	LCD_PrintString
 263              	.LVL29:
  93:main.c        **** 
  94:main.c        ****     LCD_Position(0,10);
 264              		.loc 1 94 0
 265 001e 0A21     		movs	r1, #10
 266 0020 0020     		movs	r0, #0
 267 0022 FFF7FEFF 		bl	LCD_Position
 268              	.LVL30:
  95:main.c        ****     if (control==0)
 269              		.loc 1 95 0
 270 0026 484B     		ldr	r3, .L25+8
 271 0028 B3F90230 		ldrsh	r3, [r3, #2]
 272 002c 1BB9     		cbnz	r3, .L14
  96:main.c        ****     {
  97:main.c        ****         LCD_PrintNumber(control_manual);
 273              		.loc 1 97 0
 274 002e 464B     		ldr	r3, .L25+8
 275 0030 1888     		ldrh	r0, [r3]
 276 0032 FFF7FEFF 		bl	LCD_PrintU32Number
 277              	.LVL31:
 278              	.L14:
  98:main.c        ****     }
  99:main.c        ****     if (control==1)
 279              		.loc 1 99 0
 280 0036 444B     		ldr	r3, .L25+8
 281 0038 B3F90230 		ldrsh	r3, [r3, #2]
 282 003c 012B     		cmp	r3, #1
 283 003e 6FD1     		bne	.L15
 100:main.c        ****     /* calculo de la salida de control automático */
 101:main.c        ****     {
 102:main.c        ****         error=radio*(ref_angulo-angulo);
 284              		.loc 1 102 0
 285 0040 414C     		ldr	r4, .L25+8
 286 0042 3F4E     		ldr	r6, .L25
 287 0044 6068     		ldr	r0, [r4, #4]
 288 0046 3368     		ldr	r3, [r6]
 289 0048 C01A     		subs	r0, r0, r3
 290 004a FFF7FEFF 		bl	__aeabi_i2f
 291              	.LVL32:
 292 004e A168     		ldr	r1, [r4, #8]	@ float
 293 0050 FFF7FEFF 		bl	__aeabi_fmul
 294              	.LVL33:
 295 0054 3D4D     		ldr	r5, .L25+12
ARM GAS  C:\Users\Darwin\AppData\Local\Temp\ccK2BLZS.s 			page 8


 296 0056 2860     		str	r0, [r5]	@ float
 103:main.c        ****         Pkp=PkP*error;
 297              		.loc 1 103 0
 298 0058 2868     		ldr	r0, [r5]	@ float
 299 005a E168     		ldr	r1, [r4, #12]	@ float
 300 005c FFF7FEFF 		bl	__aeabi_fmul
 301              	.LVL34:
 302 0060 3B4F     		ldr	r7, .L25+16
 303 0062 3860     		str	r0, [r7]	@ float
 104:main.c        ****         Pki=Pki_anterior+PkI*error;
 304              		.loc 1 104 0
 305 0064 2868     		ldr	r0, [r5]	@ float
 306 0066 2169     		ldr	r1, [r4, #16]	@ float
 307 0068 FFF7FEFF 		bl	__aeabi_fmul
 308              	.LVL35:
 309 006c 7168     		ldr	r1, [r6, #4]	@ float
 310 006e FFF7FEFF 		bl	__aeabi_fadd
 311              	.LVL36:
 312 0072 384E     		ldr	r6, .L25+20
 313 0074 3060     		str	r0, [r6]	@ float
 105:main.c        ****         Pkd=PkD*(error_anterior-error)/Ts;
 314              		.loc 1 105 0
 315 0076 384B     		ldr	r3, .L25+24
 316 0078 1868     		ldr	r0, [r3]	@ float
 317 007a 2968     		ldr	r1, [r5]	@ float
 318 007c FFF7FEFF 		bl	__aeabi_fsub
 319              	.LVL37:
 320 0080 6169     		ldr	r1, [r4, #20]	@ float
 321 0082 FFF7FEFF 		bl	__aeabi_fmul
 322              	.LVL38:
 323 0086 A169     		ldr	r1, [r4, #24]	@ float
 324 0088 FFF7FEFF 		bl	__aeabi_fdiv
 325              	.LVL39:
 326 008c 334D     		ldr	r5, .L25+28
 327 008e 2860     		str	r0, [r5]	@ float
 106:main.c        ****         control_auto=165+Pkp+Pki+Pkd;
 328              		.loc 1 106 0
 329 0090 3868     		ldr	r0, [r7]	@ float
 330 0092 3349     		ldr	r1, .L25+32
 331 0094 FFF7FEFF 		bl	__aeabi_fadd
 332              	.LVL40:
 333 0098 3168     		ldr	r1, [r6]	@ float
 334 009a FFF7FEFF 		bl	__aeabi_fadd
 335              	.LVL41:
 336 009e 2968     		ldr	r1, [r5]	@ float
 337 00a0 FFF7FEFF 		bl	__aeabi_fadd
 338              	.LVL42:
 339 00a4 FFF7FEFF 		bl	__aeabi_f2iz
 340              	.LVL43:
 341 00a8 00B2     		sxth	r0, r0
 342 00aa A083     		strh	r0, [r4, #28]	@ movhi
 107:main.c        ****         /* Prevenciones (prevenciones de visualizacion en psoc)*/
 108:main.c        ****         /***Para hacer pruebas con la planta cambiar limites a 120 y 200***/
 109:main.c        ****         if(control_auto>32000){control_auto=32000;}
 343              		.loc 1 109 0
 344 00ac B0F5FA4F 		cmp	r0, #32000
 345 00b0 02DD     		ble	.L16
ARM GAS  C:\Users\Darwin\AppData\Local\Temp\ccK2BLZS.s 			page 9


 346              		.loc 1 109 0 is_stmt 0 discriminator 1
 347 00b2 4FF4FA42 		mov	r2, #32000
 348 00b6 A283     		strh	r2, [r4, #28]	@ movhi
 349              	.L16:
 110:main.c        ****         if(control_auto<0){control_auto=0;}
 350              		.loc 1 110 0 is_stmt 1
 351 00b8 234B     		ldr	r3, .L25+8
 352 00ba B3F91C30 		ldrsh	r3, [r3, #28]
 353 00be 002B     		cmp	r3, #0
 354 00c0 02DA     		bge	.L17
 355              		.loc 1 110 0 is_stmt 0 discriminator 1
 356 00c2 0022     		movs	r2, #0
 357 00c4 204B     		ldr	r3, .L25+8
 358 00c6 9A83     		strh	r2, [r3, #28]	@ movhi
 359              	.L17:
 111:main.c        ****         /**Indicador LED***/
 112:main.c        ****         if(control_auto<control_anterior){LED_Write(0);}
 360              		.loc 1 112 0 is_stmt 1
 361 00c8 1F4B     		ldr	r3, .L25+8
 362 00ca B3F91C00 		ldrsh	r0, [r3, #28]
 363 00ce FFF7FEFF 		bl	__aeabi_i2f
 364              	.LVL44:
 365 00d2 1B4B     		ldr	r3, .L25
 366 00d4 9968     		ldr	r1, [r3, #8]	@ float
 367 00d6 FFF7FEFF 		bl	__aeabi_fcmplt
 368              	.LVL45:
 369 00da 10B1     		cbz	r0, .L18
 370              		.loc 1 112 0 is_stmt 0 discriminator 1
 371 00dc 0020     		movs	r0, #0
 372 00de FFF7FEFF 		bl	LED_Write
 373              	.LVL46:
 374              	.L18:
 113:main.c        ****         if(control_auto>control_anterior){LED_Write(1);}
 375              		.loc 1 113 0 is_stmt 1
 376 00e2 194B     		ldr	r3, .L25+8
 377 00e4 B3F91C00 		ldrsh	r0, [r3, #28]
 378 00e8 FFF7FEFF 		bl	__aeabi_i2f
 379              	.LVL47:
 380 00ec 144B     		ldr	r3, .L25
 381 00ee 9968     		ldr	r1, [r3, #8]	@ float
 382 00f0 FFF7FEFF 		bl	__aeabi_fcmpgt
 383              	.LVL48:
 384 00f4 10B1     		cbz	r0, .L20
 385              		.loc 1 113 0 is_stmt 0 discriminator 1
 386 00f6 0120     		movs	r0, #1
 387 00f8 FFF7FEFF 		bl	LED_Write
 388              	.LVL49:
 389              	.L20:
 114:main.c        ****         control_anterior=control_auto;
 390              		.loc 1 114 0 is_stmt 1
 391 00fc 124B     		ldr	r3, .L25+8
 392 00fe B3F91C40 		ldrsh	r4, [r3, #28]
 393 0102 2046     		mov	r0, r4
 394 0104 FFF7FEFF 		bl	__aeabi_i2f
 395              	.LVL50:
 396 0108 0D4B     		ldr	r3, .L25
 397 010a 9860     		str	r0, [r3, #8]	@ float
ARM GAS  C:\Users\Darwin\AppData\Local\Temp\ccK2BLZS.s 			page 10


 115:main.c        ****         
 116:main.c        ****         Pki_anterior=Pki;
 398              		.loc 1 116 0
 399 010c 114A     		ldr	r2, .L25+20
 400 010e 1268     		ldr	r2, [r2]	@ float
 401 0110 5A60     		str	r2, [r3, #4]	@ float
 117:main.c        ****         error_anterior=error;
 402              		.loc 1 117 0
 403 0112 0E4B     		ldr	r3, .L25+12
 404 0114 1A68     		ldr	r2, [r3]	@ float
 405 0116 104B     		ldr	r3, .L25+24
 406 0118 1A60     		str	r2, [r3]	@ float
 118:main.c        ****         LCD_PrintNumber(control_auto);
 407              		.loc 1 118 0
 408 011a A0B2     		uxth	r0, r4
 409 011c FFF7FEFF 		bl	LCD_PrintU32Number
 410              	.LVL51:
 411              	.L15:
 119:main.c        ****     }
 120:main.c        ****     LCD_Position(1,0);
 412              		.loc 1 120 0
 413 0120 0021     		movs	r1, #0
 414 0122 0120     		movs	r0, #1
 415 0124 FFF7FEFF 		bl	LCD_Position
 416              	.LVL52:
 121:main.c        ****     LCD_PrintString("angulo:");
 417              		.loc 1 121 0
 418 0128 0E48     		ldr	r0, .L25+36
 419 012a FFF7FEFF 		bl	LCD_PrintString
 420              	.LVL53:
 122:main.c        ****     LCD_Position(1,10);
 421              		.loc 1 122 0
 422 012e 0A21     		movs	r1, #10
 423 0130 0120     		movs	r0, #1
 424 0132 FFF7FEFF 		bl	LCD_Position
 425              	.LVL54:
 123:main.c        ****     LCD_PrintNumber(angulo);
 426              		.loc 1 123 0
 427 0136 024B     		ldr	r3, .L25
 428 0138 1888     		ldrh	r0, [r3]
 429 013a FFF7FEFF 		bl	LCD_PrintU32Number
 430              	.LVL55:
 431 013e F8BD     		pop	{r3, r4, r5, r6, r7, pc}
 432              	.L26:
 433              		.align	2
 434              	.L25:
 435 0140 00000000 		.word	.LANCHOR1
 436 0144 00000000 		.word	.LC0
 437 0148 00000000 		.word	.LANCHOR0
 438 014c 00000000 		.word	error
 439 0150 00000000 		.word	Pkp
 440 0154 00000000 		.word	Pki
 441 0158 00000000 		.word	error_anterior
 442 015c 00000000 		.word	Pkd
 443 0160 00002543 		.word	1126498304
 444 0164 0C000000 		.word	.LC1
 445              		.cfi_endproc
ARM GAS  C:\Users\Darwin\AppData\Local\Temp\ccK2BLZS.s 			page 11


 446              	.LFE65:
 447              		.size	Muestreo, .-Muestreo
 448              		.section	.text.main,"ax",%progbits
 449              		.align	2
 450              		.global	main
 451              		.thumb
 452              		.thumb_func
 453              		.type	main, %function
 454              	main:
 455              	.LFB66:
 124:main.c        ****     
 125:main.c        **** }
 126:main.c        **** 
 127:main.c        **** int main(void)
 128:main.c        **** {
 456              		.loc 1 128 0
 457              		.cfi_startproc
 458              		@ Volatile: function does not return.
 459              		@ args = 0, pretend = 0, frame = 0
 460              		@ frame_needed = 0, uses_anonymous_args = 0
 461 0000 08B5     		push	{r3, lr}
 462              		.cfi_def_cfa_offset 8
 463              		.cfi_offset 3, -8
 464              		.cfi_offset 14, -4
 129:main.c        ****     PWM_Motor_Start();
 465              		.loc 1 129 0
 466 0002 FFF7FEFF 		bl	PWM_Motor_Start
 467              	.LVL56:
 130:main.c        ****     LCD_Start();
 468              		.loc 1 130 0
 469 0006 FFF7FEFF 		bl	LCD_Start
 470              	.LVL57:
 131:main.c        ****     timer_clock_Start();
 471              		.loc 1 131 0
 472 000a FFF7FEFF 		bl	timer_clock_Start
 473              	.LVL58:
 132:main.c        ****     QuadDec_Start();
 474              		.loc 1 132 0
 475 000e FFF7FEFF 		bl	QuadDec_Start
 476              	.LVL59:
 133:main.c        ****     Timer_Start();
 477              		.loc 1 133 0
 478 0012 FFF7FEFF 		bl	Timer_Start
 479              	.LVL60:
 134:main.c        ****     
 135:main.c        **** 
 136:main.c        ****     
 137:main.c        ****     /*QuadDec_SetCounter(0);*/
 138:main.c        ****     
 139:main.c        ****     LCD_Position(0,0);
 480              		.loc 1 139 0
 481 0016 0021     		movs	r1, #0
 482 0018 0846     		mov	r0, r1
 483 001a FFF7FEFF 		bl	LCD_Position
 484              	.LVL61:
 140:main.c        ****     LCD_PrintString("control:");
 485              		.loc 1 140 0
ARM GAS  C:\Users\Darwin\AppData\Local\Temp\ccK2BLZS.s 			page 12


 486 001e 1948     		ldr	r0, .L32
 487 0020 FFF7FEFF 		bl	LCD_PrintString
 488              	.LVL62:
 141:main.c        ****     LCD_Position(0,10);
 489              		.loc 1 141 0
 490 0024 0A21     		movs	r1, #10
 491 0026 0020     		movs	r0, #0
 492 0028 FFF7FEFF 		bl	LCD_Position
 493              	.LVL63:
 142:main.c        ****     if (control==0)
 494              		.loc 1 142 0
 495 002c 164B     		ldr	r3, .L32+4
 496 002e B3F90230 		ldrsh	r3, [r3, #2]
 497 0032 1BB9     		cbnz	r3, .L28
 143:main.c        ****     {
 144:main.c        ****         LCD_PrintNumber(control_manual);
 498              		.loc 1 144 0
 499 0034 144B     		ldr	r3, .L32+4
 500 0036 1888     		ldrh	r0, [r3]
 501 0038 FFF7FEFF 		bl	LCD_PrintU32Number
 502              	.LVL64:
 503              	.L28:
 145:main.c        ****     }
 146:main.c        ****     if (control==1)
 504              		.loc 1 146 0
 505 003c 124B     		ldr	r3, .L32+4
 506 003e B3F90230 		ldrsh	r3, [r3, #2]
 507 0042 012B     		cmp	r3, #1
 508 0044 03D1     		bne	.L29
 147:main.c        ****     {
 148:main.c        ****         LCD_PrintNumber(control_auto);
 509              		.loc 1 148 0
 510 0046 104B     		ldr	r3, .L32+4
 511 0048 988B     		ldrh	r0, [r3, #28]
 512 004a FFF7FEFF 		bl	LCD_PrintU32Number
 513              	.LVL65:
 514              	.L29:
 149:main.c        ****     }
 150:main.c        ****     LCD_Position(1,0);
 515              		.loc 1 150 0
 516 004e 0021     		movs	r1, #0
 517 0050 0120     		movs	r0, #1
 518 0052 FFF7FEFF 		bl	LCD_Position
 519              	.LVL66:
 151:main.c        ****     LCD_PrintString("angulo:");
 520              		.loc 1 151 0
 521 0056 0D48     		ldr	r0, .L32+8
 522 0058 FFF7FEFF 		bl	LCD_PrintString
 523              	.LVL67:
 152:main.c        ****     LCD_Position(1,10);
 524              		.loc 1 152 0
 525 005c 0A21     		movs	r1, #10
 526 005e 0120     		movs	r0, #1
 527 0060 FFF7FEFF 		bl	LCD_Position
 528              	.LVL68:
 153:main.c        ****     LCD_PrintNumber(angulo);
 529              		.loc 1 153 0
ARM GAS  C:\Users\Darwin\AppData\Local\Temp\ccK2BLZS.s 			page 13


 530 0064 0A4B     		ldr	r3, .L32+12
 531 0066 1888     		ldrh	r0, [r3]
 532 0068 FFF7FEFF 		bl	LCD_PrintU32Number
 533              	.LVL69:
 154:main.c        ****     
 155:main.c        ****     CyGlobalIntEnable; /* Enable global interrupts. */
 534              		.loc 1 155 0
 535              		.syntax unified
 536              	@ 155 "main.c" 1
 537 006c 62B6     		CPSIE   i
 538              	@ 0 "" 2
 156:main.c        ****     
 157:main.c        ****     isr_Aumentar_StartEx(AumentarInt);
 539              		.loc 1 157 0
 540              		.thumb
 541              		.syntax unified
 542 006e 0948     		ldr	r0, .L32+16
 543 0070 FFF7FEFF 		bl	isr_Aumentar_StartEx
 544              	.LVL70:
 158:main.c        ****     isr_Disminuir_StartEx(DisminuirInt);
 545              		.loc 1 158 0
 546 0074 0848     		ldr	r0, .L32+20
 547 0076 FFF7FEFF 		bl	isr_Disminuir_StartEx
 548              	.LVL71:
 159:main.c        ****     isr_Ts_StartEx(Muestreo);
 549              		.loc 1 159 0
 550 007a 0848     		ldr	r0, .L32+24
 551 007c FFF7FEFF 		bl	isr_Ts_StartEx
 552              	.LVL72:
 553              	.L30:
 554 0080 FEE7     		b	.L30
 555              	.L33:
 556 0082 00BF     		.align	2
 557              	.L32:
 558 0084 00000000 		.word	.LC0
 559 0088 00000000 		.word	.LANCHOR0
 560 008c 0C000000 		.word	.LC1
 561 0090 00000000 		.word	.LANCHOR1
 562 0094 00000000 		.word	AumentarInt
 563 0098 00000000 		.word	DisminuirInt
 564 009c 00000000 		.word	Muestreo
 565              		.cfi_endproc
 566              	.LFE66:
 567              		.size	main, .-main
 568              		.global	Pki_anterior
 569              		.comm	Pkd,4,4
 570              		.comm	Pki,4,4
 571              		.comm	Pkp,4,4
 572              		.comm	error_anterior,4,4
 573              		.comm	error,4,4
 574              		.global	PkD
 575              		.global	PkI
 576              		.global	PkP
 577              		.global	radio
 578              		.global	control
 579              		.global	ref_angulo
 580              		.global	angulo
ARM GAS  C:\Users\Darwin\AppData\Local\Temp\ccK2BLZS.s 			page 14


 581              		.global	control_anterior
 582              		.global	control_auto
 583              		.global	control_manual
 584              		.global	Ts
 585              		.data
 586              		.align	2
 587              		.set	.LANCHOR0,. + 0
 588              		.type	control_manual, %object
 589              		.size	control_manual, 2
 590              	control_manual:
 591 0000 7800     		.short	120
 592              		.type	control, %object
 593              		.size	control, 2
 594              	control:
 595 0002 0100     		.short	1
 596              		.type	ref_angulo, %object
 597              		.size	ref_angulo, 4
 598              	ref_angulo:
 599 0004 51000000 		.word	81
 600              		.type	radio, %object
 601              		.size	radio, 4
 602              	radio:
 603 0008 CDCCCC3D 		.word	1036831949
 604              		.type	PkP, %object
 605              		.size	PkP, 4
 606              	PkP:
 607 000c 9A99993E 		.word	1050253722
 608              		.type	PkI, %object
 609              		.size	PkI, 4
 610              	PkI:
 611 0010 6F12833A 		.word	981668463
 612              		.type	PkD, %object
 613              		.size	PkD, 4
 614              	PkD:
 615 0014 00007A44 		.word	1148846080
 616              		.type	Ts, %object
 617              		.size	Ts, 4
 618              	Ts:
 619 0018 0AD7233C 		.word	1008981770
 620              		.type	control_auto, %object
 621              		.size	control_auto, 2
 622              	control_auto:
 623 001c 6400     		.short	100
 624              		.section	.rodata.str1.4,"aMS",%progbits,1
 625              		.align	2
 626              	.LC0:
 627 0000 636F6E74 		.ascii	"control:\000"
 627      726F6C3A 
 627      00
 628 0009 000000   		.space	3
 629              	.LC1:
 630 000c 616E6775 		.ascii	"angulo:\000"
 630      6C6F3A00 
 631              		.bss
 632              		.align	2
 633              		.set	.LANCHOR1,. + 0
 634              		.type	angulo, %object
ARM GAS  C:\Users\Darwin\AppData\Local\Temp\ccK2BLZS.s 			page 15


 635              		.size	angulo, 4
 636              	angulo:
 637 0000 00000000 		.space	4
 638              		.type	Pki_anterior, %object
 639              		.size	Pki_anterior, 4
 640              	Pki_anterior:
 641 0004 00000000 		.space	4
 642              		.type	control_anterior, %object
 643              		.size	control_anterior, 4
 644              	control_anterior:
 645 0008 00000000 		.space	4
 646              		.text
 647              	.Letext0:
 648              		.file 2 "c:\\program files (x86)\\cypress\\psoc creator\\4.2\\psoc creator\\import\\gnu\\arm\\5.4.
 649              		.file 3 "c:\\program files (x86)\\cypress\\psoc creator\\4.2\\psoc creator\\import\\gnu\\arm\\5.4.
 650              		.file 4 "Generated_Source\\PSoC5/cytypes.h"
 651              		.file 5 "Generated_Source\\PSoC5/core_cm3.h"
 652              		.file 6 "Generated_Source\\PSoC5/PWM_Motor.h"
 653              		.file 7 "Generated_Source\\PSoC5/Reset_PWM.h"
 654              		.file 8 "Generated_Source\\PSoC5/LED.h"
 655              		.file 9 "Generated_Source\\PSoC5/LCD.h"
 656              		.file 10 "Generated_Source\\PSoC5/QuadDec.h"
 657              		.file 11 "Generated_Source\\PSoC5/timer_clock.h"
 658              		.file 12 "Generated_Source\\PSoC5/Timer.h"
 659              		.file 13 "Generated_Source\\PSoC5/isr_Aumentar.h"
 660              		.file 14 "Generated_Source\\PSoC5/isr_Disminuir.h"
 661              		.file 15 "Generated_Source\\PSoC5/isr_Ts.h"